; Function Attrs: nofree norecurse nosync nounwind memory(read, argmem: readwrite, inaccessiblemem: none) uwtable
define hidden noundef i32 @_pcre2_was_newline_8(ptr noundef readonly %0, i32 noundef %1, ptr noundef readnone %2, ptr nocapture noundef writeonly %3, i32 noundef %4) local_unnamed_addr #1 {
  %6 = getelementptr inbounds i8, ptr %0, i64 -1
  %.not = icmp eq i32 %4, 0
  br i1 %.not, label %98, label %.preheader

.preheader:                                       ; preds = %5, %.preheader
  %.048 = phi ptr [ %11, %.preheader ], [ %6, %5 ]
  %7 = load i8, ptr %.048, align 1
  %8 = zext i8 %7 to i32
  %9 = and i32 %8, 192
  %10 = icmp eq i32 %9, 128
  %11 = getelementptr inbounds i8, ptr %.048, i64 -1
  br i1 %10, label %.preheader, label %12

12:                                               ; preds = %.preheader
  %13 = icmp ugt i8 %7, -65
  br i1 %13, label %14, label %101

14:                                               ; preds = %12
  %15 = and i32 %8, 32
  %16 = icmp eq i32 %15, 0
  %17 = getelementptr inbounds i8, ptr %.048, i64 1
  %18 = load i8, ptr %17, align 1
  %19 = and i8 %18, 63
  %20 = zext nneg i8 %19 to i32
  br i1 %16, label %21, label %25

21:                                               ; preds = %14
  %22 = shl nuw nsw i32 %8, 6
  %23 = and i32 %22, 1984
  %24 = or disjoint i32 %23, %20
  br label %101

25:                                               ; preds = %14
  %26 = and i32 %8, 16
  %27 = icmp eq i32 %26, 0
  br i1 %27, label %28, label %38

28:                                               ; preds = %25
  %29 = shl nuw nsw i32 %8, 12
  %30 = and i32 %29, 61440
  %31 = shl nuw nsw i32 %20, 6
  %32 = or disjoint i32 %31, %30
  %33 = getelementptr inbounds i8, ptr %.048, i64 2
  %34 = load i8, ptr %33, align 1
  %35 = and i8 %34, 63
  %36 = zext nneg i8 %35 to i32
  %37 = or disjoint i32 %32, %36
  br label %101

38:                                               ; preds = %25
  %39 = and i32 %8, 8
  %40 = icmp eq i32 %39, 0
  br i1 %40, label %41, label %57

41:                                               ; preds = %38
  %42 = shl nuw nsw i32 %8, 18
  %43 = and i32 %42, 1835008
  %44 = shl nuw nsw i32 %20, 12
  %45 = or disjoint i32 %44, %43
  %46 = getelementptr inbounds i8, ptr %.048, i64 2
  %47 = load i8, ptr %46, align 1
  %48 = and i8 %47, 63
  %49 = zext nneg i8 %48 to i32
  %50 = shl nuw nsw i32 %49, 6
  %51 = or disjoint i32 %45, %50
  %52 = getelementptr inbounds i8, ptr %.048, i64 3
  %53 = load i8, ptr %52, align 1
  %54 = and i8 %53, 63
  %55 = zext nneg i8 %54 to i32
  %56 = or disjoint i32 %51, %55
  br label %101

57:                                               ; preds = %38
  %58 = and i32 %8, 4
  %59 = icmp eq i32 %58, 0
  %60 = getelementptr inbounds i8, ptr %.048, i64 2
  %61 = load i8, ptr %60, align 1
  %62 = and i8 %61, 63
  %63 = zext nneg i8 %62 to i32
  %64 = getelementptr inbounds i8, ptr %.048, i64 3
  %65 = load i8, ptr %64, align 1
  %66 = and i8 %65, 63
  %67 = zext nneg i8 %66 to i32
  %68 = getelementptr inbounds i8, ptr %.048, i64 4
  %69 = load i8, ptr %68, align 1
  %70 = and i8 %69, 63
  %71 = zext nneg i8 %70 to i32
  br i1 %59, label %72, label %82

72:                                               ; preds = %57
  %73 = shl nuw i32 %8, 24
  %74 = and i32 %73, 50331648
  %75 = shl nuw nsw i32 %20, 18
  %76 = or disjoint i32 %75, %74
  %77 = shl nuw nsw i32 %63, 12
  %78 = or disjoint i32 %76, %77
  %79 = shl nuw nsw i32 %67, 6
  %80 = or disjoint i32 %78, %79
  %81 = or disjoint i32 %80, %71
  br label %101

82:                                               ; preds = %57
  %83 = shl i32 %8, 30
  %84 = and i32 %83, 1073741824
  %85 = shl nuw nsw i32 %20, 24
  %86 = or disjoint i32 %85, %84
  %87 = shl nuw nsw i32 %63, 18
  %88 = or disjoint i32 %86, %87
  %89 = shl nuw nsw i32 %67, 12
  %90 = or disjoint i32 %88, %89
  %91 = shl nuw nsw i32 %71, 6
  %92 = or disjoint i32 %90, %91
  %93 = getelementptr inbounds i8, ptr %.048, i64 5
  %94 = load i8, ptr %93, align 1
  %95 = and i8 %94, 63
  %96 = zext nneg i8 %95 to i32
  %97 = or disjoint i32 %92, %96
  br label %101

98:                                               ; preds = %5
  %99 = load i8, ptr %6, align 1
  %100 = zext i8 %99 to i32
  br label %101

101:                                              ; preds = %12, %28, %72, %82, %41, %21, %98
  %.1 = phi ptr [ %.048, %21 ], [ %.048, %28 ], [ %.048, %41 ], [ %.048, %72 ], [ %.048, %82 ], [ %.048, %12 ], [ %6, %98 ]
  %.0 = phi i32 [ %24, %21 ], [ %37, %28 ], [ %56, %41 ], [ %81, %72 ], [ %97, %82 ], [ %8, %12 ], [ %100, %98 ]
  %102 = icmp eq i32 %1, 2
  br i1 %102, label %103, label %111

103:                                              ; preds = %101
  switch i32 %.0, label %122 [
    i32 10, label %104
    i32 13, label %.sink.split
  ]

104:                                              ; preds = %103
  %105 = icmp ugt ptr %.1, %2
  br i1 %105, label %106, label %.sink.split

106:                                              ; preds = %104
  %107 = getelementptr inbounds i8, ptr %.1, i64 -1
  %108 = load i8, ptr %107, align 1
  %109 = icmp eq i8 %108, 13
  %110 = select i1 %109, i32 2, i32 1
  br label %.sink.split

111:                                              ; preds = %101
  switch i32 %.0, label %122 [
    i32 10, label %112
    i32 11, label %.sink.split
    i32 12, label %.sink.split
    i32 13, label %.sink.split
    i32 133, label %119
    i32 8232, label %121
    i32 8233, label %121
  ]

112:                                              ; preds = %111
  %113 = icmp ugt ptr %.1, %2
  br i1 %113, label %114, label %.sink.split

114:                                              ; preds = %112
  %115 = getelementptr inbounds i8, ptr %.1, i64 -1
  %116 = load i8, ptr %115, align 1
  %117 = icmp eq i8 %116, 13
  %118 = select i1 %117, i32 2, i32 1
  br label %.sink.split

119:                                              ; preds = %111
  %120 = select i1 %.not, i32 1, i32 2
  br label %.sink.split

121:                                              ; preds = %111, %111
  br label %.sink.split

.sink.split:                                      ; preds = %111, %111, %111, %112, %114, %103, %104, %106, %119, %121
  %.sink = phi i32 [ 3, %121 ], [ %120, %119 ], [ 1, %104 ], [ %110, %106 ], [ 1, %103 ], [ 1, %112 ], [ %118, %114 ], [ 1, %111 ], [ 1, %111 ], [ 1, %111 ]
  store i32 %.sink, ptr %3, align 4
  br label %122

122:                                              ; preds = %.sink.split, %111, %103
  %.047 = phi i32 [ 0, %103 ], [ 0, %111 ], [ 1, %.sink.split ]
  ret i32 %.047
}